; ModuleID = '17/1253.c'
source_filename = "17/1253.c"
target datalayout = "e-m:e-p270:32:32-p271:32:32-p272:64:64-i64:64-f80:128-n8:16:32:64-S128"
target triple = "x86_64-pc-linux-gnu"

@.str = private unnamed_addr constant [3 x i8] c"%c\00", align 1
@.str.1 = private unnamed_addr constant [4 x i8] c"%c\0A\00", align 1
@.str.2 = private unnamed_addr constant [2 x i8] c"\0A\00", align 1

; Function Attrs: noinline nounwind uwtable
define dso_local i32 @main() #0 {
  %1 = alloca i32, align 4
  %2 = alloca i32, align 4
  %3 = alloca i32, align 4
  %4 = alloca i32, align 4
  %5 = alloca [101 x i8], align 16
  store i32 0, i32* %1, align 4
  br label %6

6:                                                ; preds = %163, %0
  %7 = getelementptr inbounds [101 x i8], [101 x i8]* %5, i64 0, i64 0
  %8 = call i32 (i8*, ...) bitcast (i32 (...)* @gets to i32 (i8*, ...)*)(i8* %7)
  %9 = icmp ne i32 %8, 0
  br i1 %9, label %10, label %165

10:                                               ; preds = %6
  %11 = getelementptr inbounds [101 x i8], [101 x i8]* %5, i64 0, i64 0
  %12 = call i64 @strlen(i8* %11) #3
  %13 = trunc i64 %12 to i32
  store i32 %13, i32* %2, align 4
  store i32 0, i32* %3, align 4
  br label %14

14:                                               ; preds = %26, %10
  %15 = load i32, i32* %3, align 4
  %16 = load i32, i32* %2, align 4
  %17 = sub nsw i32 %16, 2
  %18 = icmp sle i32 %15, %17
  br i1 %18, label %19, label %29

19:                                               ; preds = %14
  %20 = load i32, i32* %3, align 4
  %21 = sext i32 %20 to i64
  %22 = getelementptr inbounds [101 x i8], [101 x i8]* %5, i64 0, i64 %21
  %23 = load i8, i8* %22, align 1
  %24 = sext i8 %23 to i32
  %25 = call i32 (i8*, ...) @printf(i8* getelementptr inbounds ([3 x i8], [3 x i8]* @.str, i64 0, i64 0), i32 %24)
  br label %26

26:                                               ; preds = %19
  %27 = load i32, i32* %3, align 4
  %28 = add nsw i32 %27, 1
  store i32 %28, i32* %3, align 4
  br label %14

29:                                               ; preds = %14
  %30 = load i32, i32* %2, align 4
  %31 = sub nsw i32 %30, 1
  %32 = sext i32 %31 to i64
  %33 = getelementptr inbounds [101 x i8], [101 x i8]* %5, i64 0, i64 %32
  %34 = load i8, i8* %33, align 1
  %35 = sext i8 %34 to i32
  %36 = call i32 (i8*, ...) @printf(i8* getelementptr inbounds ([4 x i8], [4 x i8]* @.str.1, i64 0, i64 0), i32 %35)
  store i32 0, i32* %3, align 4
  br label %37

37:                                               ; preds = %73, %29
  %38 = load i32, i32* %3, align 4
  %39 = load i32, i32* %2, align 4
  %40 = icmp slt i32 %38, %39
  br i1 %40, label %41, label %76

41:                                               ; preds = %37
  %42 = load i32, i32* %3, align 4
  %43 = sext i32 %42 to i64
  %44 = getelementptr inbounds [101 x i8], [101 x i8]* %5, i64 0, i64 %43
  %45 = load i8, i8* %44, align 1
  %46 = sext i8 %45 to i32
  %47 = icmp eq i32 %46, 41
  br i1 %47, label %48, label %72

48:                                               ; preds = %41
  %49 = load i32, i32* %3, align 4
  store i32 %49, i32* %4, align 4
  br label %50

50:                                               ; preds = %68, %48
  %51 = load i32, i32* %4, align 4
  %52 = icmp sge i32 %51, 0
  br i1 %52, label %53, label %71

53:                                               ; preds = %50
  %54 = load i32, i32* %4, align 4
  %55 = sext i32 %54 to i64
  %56 = getelementptr inbounds [101 x i8], [101 x i8]* %5, i64 0, i64 %55
  %57 = load i8, i8* %56, align 1
  %58 = sext i8 %57 to i32
  %59 = icmp eq i32 %58, 40
  br i1 %59, label %60, label %67

60:                                               ; preds = %53
  %61 = load i32, i32* %4, align 4
  %62 = sext i32 %61 to i64
  %63 = getelementptr inbounds [101 x i8], [101 x i8]* %5, i64 0, i64 %62
  store i8 32, i8* %63, align 1
  %64 = load i32, i32* %3, align 4
  %65 = sext i32 %64 to i64
  %66 = getelementptr inbounds [101 x i8], [101 x i8]* %5, i64 0, i64 %65
  store i8 32, i8* %66, align 1
  br label %71

67:                                               ; preds = %53
  br label %68

68:                                               ; preds = %67
  %69 = load i32, i32* %4, align 4
  %70 = add nsw i32 %69, -1
  store i32 %70, i32* %4, align 4
  br label %50

71:                                               ; preds = %60, %50
  br label %72

72:                                               ; preds = %71, %41
  br label %73

73:                                               ; preds = %72
  %74 = load i32, i32* %3, align 4
  %75 = add nsw i32 %74, 1
  store i32 %75, i32* %3, align 4
  br label %37

76:                                               ; preds = %37
  store i32 0, i32* %3, align 4
  br label %77

77:                                               ; preds = %145, %76
  %78 = load i32, i32* %3, align 4
  %79 = load i32, i32* %2, align 4
  %80 = icmp slt i32 %78, %79
  br i1 %80, label %81, label %148

81:                                               ; preds = %77
  %82 = load i32, i32* %3, align 4
  %83 = sext i32 %82 to i64
  %84 = getelementptr inbounds [101 x i8], [101 x i8]* %5, i64 0, i64 %83
  %85 = load i8, i8* %84, align 1
  %86 = sext i8 %85 to i32
  %87 = icmp sge i32 %86, 97
  br i1 %87, label %88, label %95

88:                                               ; preds = %81
  %89 = load i32, i32* %3, align 4
  %90 = sext i32 %89 to i64
  %91 = getelementptr inbounds [101 x i8], [101 x i8]* %5, i64 0, i64 %90
  %92 = load i8, i8* %91, align 1
  %93 = sext i8 %92 to i32
  %94 = icmp sle i32 %93, 122
  br i1 %94, label %116, label %95

95:                                               ; preds = %88, %81
  %96 = load i32, i32* %3, align 4
  %97 = sext i32 %96 to i64
  %98 = getelementptr inbounds [101 x i8], [101 x i8]* %5, i64 0, i64 %97
  %99 = load i8, i8* %98, align 1
  %100 = sext i8 %99 to i32
  %101 = icmp sge i32 %100, 65
  br i1 %101, label %102, label %109

102:                                              ; preds = %95
  %103 = load i32, i32* %3, align 4
  %104 = sext i32 %103 to i64
  %105 = getelementptr inbounds [101 x i8], [101 x i8]* %5, i64 0, i64 %104
  %106 = load i8, i8* %105, align 1
  %107 = sext i8 %106 to i32
  %108 = icmp sle i32 %107, 90
  br i1 %108, label %116, label %109

109:                                              ; preds = %102, %95
  %110 = load i32, i32* %3, align 4
  %111 = sext i32 %110 to i64
  %112 = getelementptr inbounds [101 x i8], [101 x i8]* %5, i64 0, i64 %111
  %113 = load i8, i8* %112, align 1
  %114 = sext i8 %113 to i32
  %115 = icmp eq i32 %114, 32
  br i1 %115, label %116, label %120

116:                                              ; preds = %109, %102, %88
  %117 = load i32, i32* %3, align 4
  %118 = sext i32 %117 to i64
  %119 = getelementptr inbounds [101 x i8], [101 x i8]* %5, i64 0, i64 %118
  store i8 32, i8* %119, align 1
  br label %144

120:                                              ; preds = %109
  %121 = load i32, i32* %3, align 4
  %122 = sext i32 %121 to i64
  %123 = getelementptr inbounds [101 x i8], [101 x i8]* %5, i64 0, i64 %122
  %124 = load i8, i8* %123, align 1
  %125 = sext i8 %124 to i32
  %126 = icmp eq i32 %125, 41
  br i1 %126, label %127, label %131

127:                                              ; preds = %120
  %128 = load i32, i32* %3, align 4
  %129 = sext i32 %128 to i64
  %130 = getelementptr inbounds [101 x i8], [101 x i8]* %5, i64 0, i64 %129
  store i8 63, i8* %130, align 1
  br label %143

131:                                              ; preds = %120
  %132 = load i32, i32* %3, align 4
  %133 = sext i32 %132 to i64
  %134 = getelementptr inbounds [101 x i8], [101 x i8]* %5, i64 0, i64 %133
  %135 = load i8, i8* %134, align 1
  %136 = sext i8 %135 to i32
  %137 = icmp eq i32 %136, 40
  br i1 %137, label %138, label %142

138:                                              ; preds = %131
  %139 = load i32, i32* %3, align 4
  %140 = sext i32 %139 to i64
  %141 = getelementptr inbounds [101 x i8], [101 x i8]* %5, i64 0, i64 %140
  store i8 36, i8* %141, align 1
  br label %142

142:                                              ; preds = %138, %131
  br label %143

143:                                              ; preds = %142, %127
  br label %144

144:                                              ; preds = %143, %116
  br label %145

145:                                              ; preds = %144
  %146 = load i32, i32* %3, align 4
  %147 = add nsw i32 %146, 1
  store i32 %147, i32* %3, align 4
  br label %77

148:                                              ; preds = %77
  store i32 0, i32* %3, align 4
  br label %149

149:                                              ; preds = %160, %148
  %150 = load i32, i32* %3, align 4
  %151 = load i32, i32* %2, align 4
  %152 = icmp slt i32 %150, %151
  br i1 %152, label %153, label %163

153:                                              ; preds = %149
  %154 = load i32, i32* %3, align 4
  %155 = sext i32 %154 to i64
  %156 = getelementptr inbounds [101 x i8], [101 x i8]* %5, i64 0, i64 %155
  %157 = load i8, i8* %156, align 1
  %158 = sext i8 %157 to i32
  %159 = call i32 (i8*, ...) @printf(i8* getelementptr inbounds ([3 x i8], [3 x i8]* @.str, i64 0, i64 0), i32 %158)
  br label %160

160:                                              ; preds = %153
  %161 = load i32, i32* %3, align 4
  %162 = add nsw i32 %161, 1
  store i32 %162, i32* %3, align 4
  br label %149

163:                                              ; preds = %149
  %164 = call i32 (i8*, ...) @printf(i8* getelementptr inbounds ([2 x i8], [2 x i8]* @.str.2, i64 0, i64 0))
  br label %6

165:                                              ; preds = %6
  %166 = load i32, i32* %1, align 4
  ret i32 %166
}

declare dso_local i32 @gets(...) #1

; Function Attrs: nounwind readonly
declare dso_local i64 @strlen(i8*) #2

declare dso_local i32 @printf(i8*, ...) #1


!llvm.module.flags = !{!0}
!llvm.ident = !{!1}

!0 = !{i32 1, !"wchar_size", i32 4}
!1 = !{!"clang version 10.0.0-4ubuntu1 "}
